; Function Attrs: mustprogress uwtable
define internal noundef zeroext i1 @"_ZNSt17_Function_handlerIFviEZN3igl18forward_kinematicsERKN5Eigen6MatrixIdLin1ELin1ELi0ELin1ELin1EEERKNS3_IiLin1ELin1ELi0ELin1ELin1EEERKNS3_IiLin1ELi1ELi0ELin1ELi1EEERKSt6vectorINS2_10QuaternionIdLi0EEENS2_17aligned_allocatorISF_EEERKSD_INS3_IdLi3ELi1ELi0ELi3ELi1EEESaISL_EERSI_RSN_E3$_0E10_M_managerERSt9_Any_dataRKSU_St18_Manager_operation"(ptr noundef nonnull align 8 captures(none) dereferenceable(16) %0, ptr noundef nonnull readonly align 8 captures(none) dereferenceable(16) %1, i32 noundef %2) #0 align 2 {
  switch i32 %2, label %"_ZNSt14_Function_base13_Base_managerIZN3igl18forward_kinematicsERKN5Eigen6MatrixIdLin1ELin1ELi0ELin1ELin1EEERKNS3_IiLin1ELin1ELi0ELin1ELin1EEERKNS3_IiLin1ELi1ELi0ELin1ELi1EEERKSt6vectorINS2_10QuaternionIdLi0EEENS2_17aligned_allocatorISF_EEERKSD_INS3_IdLi3ELi1ELi0ELi3ELi1EEESaISL_EERSI_RSN_E3$_0E10_M_managerERSt9_Any_dataRKSU_St18_Manager_operation.exit" [
    i32 0, label %4
    i32 1, label %5
    i32 3, label %8
    i32 2, label %6
  ]

4:                                                ; preds = %3
  store ptr @"_ZTIZN3igl18forward_kinematicsERKN5Eigen6MatrixIdLin1ELin1ELi0ELin1ELin1EEERKNS1_IiLin1ELin1ELi0ELin1ELin1EEERKNS1_IiLin1ELi1ELi0ELin1ELi1EEERKSt6vectorINS0_10QuaternionIdLi0EEENS0_17aligned_allocatorISD_EEERKSB_INS1_IdLi3ELi1ELi0ELi3ELi1EEESaISJ_EERSG_RSL_E3$_0", ptr %0, align 8, !tbaa !156
  br label %"_ZNSt14_Function_base13_Base_managerIZN3igl18forward_kinematicsERKN5Eigen6MatrixIdLin1ELin1ELi0ELin1ELin1EEERKNS3_IiLin1ELin1ELi0ELin1ELin1EEERKNS3_IiLin1ELi1ELi0ELin1ELi1EEERKSt6vectorINS2_10QuaternionIdLi0EEENS2_17aligned_allocatorISF_EEERKSD_INS3_IdLi3ELi1ELi0ELi3ELi1EEESaISL_EERSI_RSN_E3$_0E10_M_managerERSt9_Any_dataRKSU_St18_Manager_operation.exit"

5:                                                ; preds = %3
  %.val = load ptr, ptr %1, align 8, !tbaa !37
  store ptr %.val, ptr %0, align 8, !tbaa !37
  br label %"_ZNSt14_Function_base13_Base_managerIZN3igl18forward_kinematicsERKN5Eigen6MatrixIdLin1ELin1ELi0ELin1ELin1EEERKNS3_IiLin1ELin1ELi0ELin1ELin1EEERKNS3_IiLin1ELi1ELi0ELin1ELi1EEERKSt6vectorINS2_10QuaternionIdLi0EEENS2_17aligned_allocatorISF_EEERKSD_INS3_IdLi3ELi1ELi0ELi3ELi1EEESaISL_EERSI_RSN_E3$_0E10_M_managerERSt9_Any_dataRKSU_St18_Manager_operation.exit"

6:                                                ; preds = %3
  %.val6 = load ptr, ptr %1, align 8
  %7 = tail call noalias noundef nonnull dereferenceable(72) ptr @_Znwm(i64 noundef 72) #19
  tail call void @llvm.memcpy.p0.p0.i64(ptr noundef nonnull align 16 dereferenceable(72) %7, ptr noundef nonnull readonly align 8 dereferenceable(72) %.val6, i64 72, i1 false), !tbaa.struct !158
  store ptr %7, ptr %0, align 8, !tbaa !37
  br label %"_ZNSt14_Function_base13_Base_managerIZN3igl18forward_kinematicsERKN5Eigen6MatrixIdLin1ELin1ELi0ELin1ELin1EEERKNS3_IiLin1ELin1ELi0ELin1ELin1EEERKNS3_IiLin1ELi1ELi0ELin1ELi1EEERKSt6vectorINS2_10QuaternionIdLi0EEENS2_17aligned_allocatorISF_EEERKSD_INS3_IdLi3ELi1ELi0ELi3ELi1EEESaISL_EERSI_RSN_E3$_0E10_M_managerERSt9_Any_dataRKSU_St18_Manager_operation.exit"

8:                                                ; preds = %3
  %.val7.i = load ptr, ptr %0, align 8, !tbaa !37
  %9 = icmp eq ptr %.val7.i, null
  br i1 %9, label %"_ZNSt14_Function_base13_Base_managerIZN3igl18forward_kinematicsERKN5Eigen6MatrixIdLin1ELin1ELi0ELin1ELin1EEERKNS3_IiLin1ELin1ELi0ELin1ELin1EEERKNS3_IiLin1ELi1ELi0ELin1ELi1EEERKSt6vectorINS2_10QuaternionIdLi0EEENS2_17aligned_allocatorISF_EEERKSD_INS3_IdLi3ELi1ELi0ELi3ELi1EEESaISL_EERSI_RSN_E3$_0E10_M_managerERSt9_Any_dataRKSU_St18_Manager_operation.exit", label %10

10:                                               ; preds = %8
  tail call void @_ZdlPvm(ptr noundef nonnull %.val7.i, i64 noundef 72) #21
  br label %"_ZNSt14_Function_base13_Base_managerIZN3igl18forward_kinematicsERKN5Eigen6MatrixIdLin1ELin1ELi0ELin1ELin1EEERKNS3_IiLin1ELin1ELi0ELin1ELin1EEERKNS3_IiLin1ELi1ELi0ELin1ELi1EEERKSt6vectorINS2_10QuaternionIdLi0EEENS2_17aligned_allocatorISF_EEERKSD_INS3_IdLi3ELi1ELi0ELi3ELi1EEESaISL_EERSI_RSN_E3$_0E10_M_managerERSt9_Any_dataRKSU_St18_Manager_operation.exit"

"_ZNSt14_Function_base13_Base_managerIZN3igl18forward_kinematicsERKN5Eigen6MatrixIdLin1ELin1ELi0ELin1ELin1EEERKNS3_IiLin1ELin1ELi0ELin1ELin1EEERKNS3_IiLin1ELi1ELi0ELin1ELi1EEERKSt6vectorINS2_10QuaternionIdLi0EEENS2_17aligned_allocatorISF_EEERKSD_INS3_IdLi3ELi1ELi0ELi3ELi1EEESaISL_EERSI_RSN_E3$_0E10_M_managerERSt9_Any_dataRKSU_St18_Manager_operation.exit": ; preds = %3, %10, %8, %6, %5, %4
  ret i1 false
}